Certificate:
    Data:
        Version: 3 (0x2)
        Serial Number: 0 (0x0)
        Signature Algorithm: md5WithRSAEncryption
        Issuer: C=AU, ST=ACT, L=Canberra, O=Australian National University, OU=ANUSF, CN=APAC NF CA/emailAddress=help@nf.apac.edu.au
        Validity
            Not Before: May  6 06:12:01 2005 GMT
            Not After : May  6 06:12:01 2015 GMT
        Subject: C=AU, ST=ACT, L=Canberra, O=Australian National University, OU=ANUSF, CN=APAC NF CA/emailAddress=help@nf.apac.edu.au
        Subject Public Key Info:
            Public Key Algorithm: rsaEncryption
            RSA Public Key: (1024 bit)
                Modulus (1024 bit):
                    00:de:1a:cf:8e:48:8c:4b:5d:f4:87:af:c9:03:5b:
                    c7:c4:1f:26:e7:da:3f:51:99:24:73:f1:c7:45:a8:
                    cd:4a:fa:3d:d1:83:94:9d:a5:54:0b:12:61:1d:a0:
                    a1:f8:f3:45:8e:ae:8f:39:55:42:9f:86:35:37:f9:
                    ae:88:78:59:d0:7a:bb:a0:53:41:35:bf:ea:f4:25:
                    35:1c:a3:a5:25:38:b2:fd:86:af:8f:40:56:31:74:
                    b2:9d:14:4c:0e:e5:5f:cf:f0:65:f7:4a:ef:94:09:
                    fa:4b:5e:ab:79:34:40:6c:5d:c4:83:29:e3:dd:5c:
                    ba:7b:22:c3:ed:0c:34:7c:e5
                Exponent: 65537 (0x10001)
        X509v3 extensions:
            X509v3 Subject Key Identifier: 
            4F:E6:20:92:03:BD:DB:C2:83:CE:A2:19:C9:4A:9A:37:DA:08:6E:CC
            X509v3 Authority Key Identifier: 
            keyid:4F:E6:20:92:03:BD:DB:C2:83:CE:A2:19:C9:4A:9A:37:DA:08:6E:CC
            DirName:/C=AU/ST=ACT/L=Canberra/O=Australian National University/OU=ANUSF/CN=APAC NF CA/emailAddress=help@nf.apac.edu.au
            serial:00

            X509v3 Basic Constraints: 
            CA:TRUE
    Signature Algorithm: md5WithRSAEncryption
        1d:bf:21:59:a2:cc:89:8d:bb:71:24:9c:9e:b7:8c:8c:89:a5:
        52:29:5d:4b:f8:7c:34:9d:c7:08:2e:e9:b3:1d:a6:ee:8a:62:
        58:84:64:d9:8c:de:3a:81:9b:68:db:bf:18:0c:2d:46:a1:3d:
        71:7a:4d:0d:28:a9:92:af:00:98:ed:02:04:1b:e5:d3:a2:d2:
        6d:54:97:5b:06:f3:20:a5:91:ce:67:1f:5a:59:c5:a7:b0:65:
        4d:50:92:b4:cd:6b:d7:2e:53:2f:cc:a2:60:1e:d9:3e:c3:79:
        22:44:a4:10:a2:74:b6:44:73:7e:35:76:53:f5:29:82:b5:5d:
        8f:13
-----BEGIN CERTIFICATE-----
MIIDujCCAyOgAwIBAgIBADANBgkqhkiG9w0BAQQFADCBoDELMAkGA1UEBhMCQVUx
DDAKBgNVBAgTA0FDVDERMA8GA1UEBxMIQ2FuYmVycmExJzAlBgNVBAoTHkF1c3Ry
YWxpYW4gTmF0aW9uYWwgVW5pdmVyc2l0eTEOMAwGA1UECxMFQU5VU0YxEzARBgNV
BAMTCkFQQUMgTkYgQ0ExIjAgBgkqhkiG9w0BCQEWE2hlbHBAbmYuYXBhYy5lZHUu
YXUwHhcNMDUwNTA2MDYxMjAxWhcNMTUwNTA2MDYxMjAxWjCBoDELMAkGA1UEBhMC
QVUxDDAKBgNVBAgTA0FDVDERMA8GA1UEBxMIQ2FuYmVycmExJzAlBgNVBAoTHkF1
c3RyYWxpYW4gTmF0aW9uYWwgVW5pdmVyc2l0eTEOMAwGA1UECxMFQU5VU0YxEzAR
BgNVBAMTCkFQQUMgTkYgQ0ExIjAgBgkqhkiG9w0BCQEWE2hlbHBAbmYuYXBhYy5l
ZHUuYXUwgZ8wDQYJKoZIhvcNAQEBBQADgY0AMIGJAoGBAN4az45IjEtd9IevyQNb
x8QfJufaP1GZJHPxx0WozUr6PdGDlJ2lVAsSYR2gofjzRY6ujzlVQp+GNTf5roh4
WdB6u6BTQTW/6vQlNRyjpSU4sv2Gr49AVjF0sp0UTA7lX8/wZfdK75QJ+kteq3k0
QGxdxIMp491cunsiw+0MNHzlAgMBAAGjggEAMIH9MB0GA1UdDgQWBBRP5iCSA73b
woPOohnJSpo32ghuzDCBzQYDVR0jBIHFMIHCgBRP5iCSA73bwoPOohnJSpo32ghu
zKGBpqSBozCBoDELMAkGA1UEBhMCQVUxDDAKBgNVBAgTA0FDVDERMA8GA1UEBxMI
Q2FuYmVycmExJzAlBgNVBAoTHkF1c3RyYWxpYW4gTmF0aW9uYWwgVW5pdmVyc2l0
eTEOMAwGA1UECxMFQU5VU0YxEzARBgNVBAMTCkFQQUMgTkYgQ0ExIjAgBgkqhkiG
9w0BCQEWE2hlbHBAbmYuYXBhYy5lZHUuYXWCAQAwDAYDVR0TBAUwAwEB/zANBgkq
hkiG9w0BAQQFAAOBgQAdvyFZosyJjbtxJJyet4yMiaVSKV1L+Hw0nccILumzHabu
imJYhGTZjN46gZto278YDC1GoT1xek0NKKmSrwCY7QIEG+XTotJtVJdbBvMgpZHO
Zx9aWcWnsGVNUJK0zWvXLlMvzKJgHtk+w3kiRKQQonS2RHN+NXZT9SmCtV2PEw==
-----END CERTIFICATE-----
